ccopy_reg
_reconstructor
p0
(cnltk.classify.naivebayes
NaiveBayesClassifier
p1
c__builtin__
object
p2
Ntp3
Rp4
(dp5
S'_labels'
p6
(lp7
VSEARCH
p8
aVSEND
p9
asS'_feature_probdist'
p10
(dp11
(g8
S'exists(\xec\x96\xb4\xec\xa0\x9c/Noun)'
p12
tp13
g0
(cnltk.probability
ELEProbDist
p14
g2
Ntp15
Rp16
(dp17
S'_gamma'
p18
F0.5
sS'_N'
p19
I28
sS'_freqdist'
p20
cnltk.probability
FreqDist
p21
((dp22
I00
I26
sI01
I2
stp23
Rp24
sS'_bins'
p25
I2
sS'_divisor'
p26
F29.0
sbs(g8
S'exists(\xeb\xaa\xa8\xeb\x91\x90/Noun)'
p27
tp28
g0
(g14
g2
Ntp29
Rp30
(dp31
g18
F0.5
sg19
I28
sg20
g21
((dp32
I00
I27
sI01
I1
stp33
Rp34
sg25
I2
sg26
F29.0
sbs(g8
S'exists(\xea\xb2\x80\xec\x83\x89/Noun)'
p35
tp36
g0
(g14
g2
Ntp37
Rp38
(dp39
g18
F0.5
sg19
I28
sg20
g21
((dp40
I00
I20
sI01
I8
stp41
Rp42
sg25
I2
sg26
F29.0
sbs(g8
S'exists(\xeb\x82\xb4/Noun)'
p43
tp44
g0
(g14
g2
Ntp45
Rp46
(dp47
g18
F0.5
sg19
I28
sg20
g21
((dp48
I00
I24
sI01
I4
stp49
Rp50
sg25
I2
sg26
F29.0
sbs(g9
S'exists(\xea\xb0\xa4\xeb\x9f\xac\xeb\xa6\xac/Noun)'
p51
tp52
g0
(g14
g2
Ntp53
Rp54
(dp55
g18
F0.5
sg19
I28
sg20
g21
((dp56
I00
I28
stp57
Rp58
sg25
I2
sg26
F29.0
sbs(g8
S'exists(\xec\x95\x9e/Noun)'
p59
tp60
g0
(g14
g2
Ntp61
Rp62
(dp63
g18
F0.5
sg19
I28
sg20
g21
((dp64
I00
I28
stp65
Rp66
sg25
I2
sg26
F29.0
sbs(g9
S'exists(\xed\x86\xa1/Noun)'
p67
tp68
g0
(g14
g2
Ntp69
Rp70
(dp71
g18
F0.5
sg19
I28
sg20
g21
((dp72
I00
I26
sI01
I2
stp73
Rp74
sg25
I2
sg26
F29.0
sbs(g8
S'exists(\xed\x95\xb4\xec\xa3\xbc\xeb\x8b\xa4/Verb)'
p75
tp76
g0
(g14
g2
Ntp77
Rp78
(dp79
g18
F0.5
sg19
I28
sg20
g21
((dp80
I00
I26
sI01
I2
stp81
Rp82
sg25
I2
sg26
F29.0
sbs(g8
S'exists(\xeb\xb3\xb4\xeb\x82\xb4\xeb\x8b\xa4/Verb)'
p83
tp84
g0
(g14
g2
Ntp85
Rp86
(dp87
g18
F0.5
sg19
I28
sg20
g21
((dp88
I00
I28
stp89
Rp90
sg25
I2
sg26
F29.0
sbs(g9
S'exists(\xeb\xb3\xb4\xeb\x8b\xa4/Verb)'
p91
tp92
g0
(g14
g2
Ntp93
Rp94
(dp95
g18
F0.5
sg19
I28
sg20
g21
((dp96
I00
I28
stp97
Rp98
sg25
I2
sg26
F29.0
sbs(g8
S'exists(\xec\x97\xac\xeb\xa6\x84/Noun)'
p99
tp100
g0
(g14
g2
Ntp101
Rp102
(dp103
g18
F0.5
sg19
I28
sg20
g21
((dp104
I00
I26
sI01
I2
stp105
Rp106
sg25
I2
sg26
F29.0
sbs(g9
S'exists(\xec\x98\xa4\xeb\x8a\x98/Noun)'
p107
tp108
g0
(g14
g2
Ntp109
Rp110
(dp111
g18
F0.5
sg19
I28
sg20
g21
((dp112
I00
I28
stp113
Rp114
sg25
I2
sg26
F29.0
sbs(g8
S'exists(\xed\x8c\x8c\xec\x9d\xb4/Noun)'
p115
tp116
g0
(g14
g2
Ntp117
Rp118
(dp119
g18
F0.5
sg19
I28
sg20
g21
((dp120
I00
I28
stp121
Rp122
sg25
I2
sg26
F29.0
sbs(g8
S'exists(\xec\x9b\x94\xec\x9a\x94\xec\x9d\xbc/Noun)'
p123
tp124
g0
(g14
g2
Ntp125
Rp126
(dp127
g18
F0.5
sg19
I28
sg20
g21
((dp128
I00
I28
stp129
Rp130
sg25
I2
sg26
F29.0
sbs(g8
S'exists(\xec\x9e\x91\xeb\x85\x84/Noun)'
p131
tp132
g0
(g14
g2
Ntp133
Rp134
(dp135
g18
F0.5
sg19
I28
sg20
g21
((dp136
I00
I23
sI01
I5
stp137
Rp138
sg25
I2
sg26
F29.0
sbs(g8
S'exists(\xea\xb0\xa4\xeb\x9f\xac\xeb\xa6\xac/Noun)'
p139
tp140
g0
(g14
g2
Ntp141
Rp142
(dp143
g18
F0.5
sg19
I28
sg20
g21
((dp144
I00
I25
sI01
I3
stp145
Rp146
sg25
I2
sg26
F29.0
sbs(g8
S'exists(\xec\x82\xac\xec\xa7\x84/Noun)'
p147
tp148
g0
(g14
g2
Ntp149
Rp150
(dp151
g18
F0.5
sg19
I28
sg20
g21
((dp152
I01
I28
stp153
Rp154
sg25
I2
sg26
F29.0
sbs(g8
S'exists(\xeb\x82\x98\xec\x98\xa4\xeb\x8b\xa4/Verb)'
p155
tp156
g0
(g14
g2
Ntp157
Rp158
(dp159
g18
F0.5
sg19
I28
sg20
g21
((dp160
I00
I18
sI01
I10
stp161
Rp162
sg25
I2
sg26
F29.0
sbs(g8
S'exists(\xed\x86\xa1/Noun)'
p163
tp164
g0
(g14
g2
Ntp165
Rp166
(dp167
g18
F0.5
sg19
I28
sg20
g21
((dp168
I00
I28
stp169
Rp170
sg25
I2
sg26
F29.0
sbs(g8
S'exists(\xeb\xb0\xa9\xea\xb8\x88/Noun)'
p171
tp172
g0
(g14
g2
Ntp173
Rp174
(dp175
g18
F0.5
sg19
I28
sg20
g21
((dp176
I00
I28
stp177
Rp178
sg25
I2
sg26
F29.0
sbs(g9
S'exists(\xec\x9c\x84/Noun)'
p179
tp180
g0
(g14
g2
Ntp181
Rp182
(dp183
g18
F0.5
sg19
I28
sg20
g21
((dp184
I00
I26
sI01
I2
stp185
Rp186
sg25
I2
sg26
F29.0
sbs(g9
S'exists(\xec\x95\x9e/Noun)'
p187
tp188
g0
(g14
g2
Ntp189
Rp190
(dp191
g18
F0.5
sg19
I28
sg20
g21
((dp192
I00
I26
sI01
I2
stp193
Rp194
sg25
I2
sg26
F29.0
sbs(g8
S'exists(\xec\xa7\x80\xea\xb8\x88/Noun)'
p195
tp196
g0
(g14
g2
Ntp197
Rp198
(dp199
g18
F0.5
sg19
I28
sg20
g21
((dp200
I00
I28
stp201
Rp202
sg25
I2
sg26
F29.0
sbs(g8
S'exists(\xeb\x82\xb4\xec\x9d\xbc/Noun)'
p203
tp204
g0
(g14
g2
Ntp205
Rp206
(dp207
g18
F0.5
sg19
I28
sg20
g21
((dp208
I00
I28
stp209
Rp210
sg25
I2
sg26
F29.0
sbs(g9
S'exists(\xec\x84\xb8/Noun)'
p211
tp212
g0
(g14
g2
Ntp213
Rp214
(dp215
g18
F0.5
sg19
I28
sg20
g21
((dp216
I00
I26
sI01
I2
stp217
Rp218
sg25
I2
sg26
F29.0
sbs(g8
S'exists(\xec\x98\x88\xec\xa7\x80/Noun)'
p219
tp220
g0
(g14
g2
Ntp221
Rp222
(dp223
g18
F0.5
sg19
I28
sg20
g21
((dp224
I00
I27
sI01
I1
stp225
Rp226
sg25
I2
sg26
F29.0
sbs(g8
S'exists(\xea\xb0\x9c/Noun)'
p227
tp228
g0
(g14
g2
Ntp229
Rp230
(dp231
g18
F0.5
sg19
I28
sg20
g21
((dp232
I00
I27
sI01
I1
stp233
Rp234
sg25
I2
sg26
F29.0
sbs(g9
S'exists(\xec\xb0\xb0\xeb\xa6\xac/Noun)'
p235
tp236
g0
(g14
g2
Ntp237
Rp238
(dp239
g18
F0.5
sg19
I28
sg20
g21
((dp240
I00
I26
sI01
I2
stp241
Rp242
sg25
I2
sg26
F29.0
sbs(g8
S'exists(\xeb\x90\x98\xeb\x8b\xa4/Verb)'
p243
tp244
g0
(g14
g2
Ntp245
Rp246
(dp247
g18
F0.5
sg19
I28
sg20
g21
((dp248
I00
I27
sI01
I1
stp249
Rp250
sg25
I2
sg26
F29.0
sbs(g8
S'exists(\xec\x84\xb8/Noun)'
p251
tp252
g0
(g14
g2
Ntp253
Rp254
(dp255
g18
F0.5
sg19
I28
sg20
g21
((dp256
I00
I28
stp257
Rp258
sg25
I2
sg26
F29.0
sbs(g8
S'exists(\xec\xb0\x8d\xeb\x8b\xa4/Verb)'
p259
tp260
g0
(g14
g2
Ntp261
Rp262
(dp263
g18
F0.5
sg19
I28
sg20
g21
((dp264
I00
I14
sI01
I14
stp265
Rp266
sg25
I2
sg26
F29.0
sbs(g8
S'exists(\xec\xa0\x84\xec\x86\xa1/Noun)'
p267
tp268
g0
(g14
g2
Ntp269
Rp270
(dp271
g18
F0.5
sg19
I28
sg20
g21
((dp272
I00
I28
stp273
Rp274
sg25
I2
sg26
F29.0
sbs(g8
S'exists(\xec\xa4\x91/Noun)'
p275
tp276
g0
(g14
g2
Ntp277
Rp278
(dp279
g18
F0.5
sg19
I28
sg20
g21
((dp280
I00
I26
sI01
I2
stp281
Rp282
sg25
I2
sg26
F29.0
sbs(g9
S'exists(\xec\x9d\xb4\xeb\xa9\x94\xec\x9d\xbc/Noun)'
p283
tp284
g0
(g14
g2
Ntp285
Rp286
(dp287
g18
F0.5
sg19
I28
sg20
g21
((dp288
I00
I26
sI01
I2
stp289
Rp290
sg25
I2
sg26
F29.0
sbs(g9
S'exists(\xec\x82\xac\xec\xa7\x84/Noun)'
p291
tp292
g0
(g14
g2
Ntp293
Rp294
(dp295
g18
F0.5
sg19
I28
sg20
g21
((dp296
I00
I7
sI01
I21
stp297
Rp298
sg25
I2
sg26
F29.0
sbs(g9
S'exists(\xeb\x90\x98\xeb\x8b\xa4/Verb)'
p299
tp300
g0
(g14
g2
Ntp301
Rp302
(dp303
g18
F0.5
sg19
I28
sg20
g21
((dp304
I00
I19
sI01
I9
stp305
Rp306
sg25
I2
sg26
F29.0
sbs(g8
S'exists(\xec\x97\x84\xeb\xa7\x88/Noun)'
p307
tp308
g0
(g14
g2
Ntp309
Rp310
(dp311
g18
F0.5
sg19
I28
sg20
g21
((dp312
I00
I27
sI01
I1
stp313
Rp314
sg25
I2
sg26
F29.0
sbs(g8
S'exists(\xed\x95\xa0\xeb\xa8\xb8\xeb\x8b\x88/Noun)'
p315
tp316
g0
(g14
g2
Ntp317
Rp318
(dp319
g18
F0.5
sg19
I28
sg20
g21
((dp320
I00
I28
stp321
Rp322
sg25
I2
sg26
F29.0
sbs(g8
S'exists(\xec\x86\x8c\xed\x94\xbc/Noun)'
p323
tp324
g0
(g14
g2
Ntp325
Rp326
(dp327
g18
F0.5
sg19
I28
sg20
g21
((dp328
I00
I28
stp329
Rp330
sg25
I2
sg26
F29.0
sbs(g9
S'exists(\xec\xa7\x80\xea\xb8\x88/Noun)'
p331
tp332
g0
(g14
g2
Ntp333
Rp334
(dp335
g18
F0.5
sg19
I28
sg20
g21
((dp336
I00
I26
sI01
I2
stp337
Rp338
sg25
I2
sg26
F29.0
sbs(g9
S'exists(\xeb\x8b\x89/Noun)'
p339
tp340
g0
(g14
g2
Ntp341
Rp342
(dp343
g18
F0.5
sg19
I28
sg20
g21
((dp344
I00
I26
sI01
I2
stp345
Rp346
sg25
I2
sg26
F29.0
sbs(g8
S'exists(\xeb\xb6\x84\xeb\xa5\x98/Noun)'
p347
tp348
g0
(g14
g2
Ntp349
Rp350
(dp351
g18
F0.5
sg19
I28
sg20
g21
((dp352
I00
I28
stp353
Rp354
sg25
I2
sg26
F29.0
sbs(g9
S'exists(\xeb\x82\xb4/Noun)'
p355
tp356
g0
(g14
g2
Ntp357
Rp358
(dp359
g18
F0.5
sg19
I28
sg20
g21
((dp360
I00
I28
stp361
Rp362
sg25
I2
sg26
F29.0
sbs(g9
S'exists(\xeb\xaa\xa8\xeb\x91\x90/Noun)'
p363
tp364
g0
(g14
g2
Ntp365
Rp366
(dp367
g18
F0.5
sg19
I28
sg20
g21
((dp368
I00
I26
sI01
I2
stp369
Rp370
sg25
I2
sg26
F29.0
sbs(g8
S'exists(\xeb\xb3\xb4\xec\x9d\xb4\xeb\x8b\xa4/Verb)'
p371
tp372
g0
(g14
g2
Ntp373
Rp374
(dp375
g18
F0.5
sg19
I28
sg20
g21
((dp376
I00
I19
sI01
I9
stp377
Rp378
sg25
I2
sg26
F29.0
sbs(g8
S'exists(\xec\x98\xa4\xeb\x8a\x98/Noun)'
p379
tp380
g0
(g14
g2
Ntp381
Rp382
(dp383
g18
F0.5
sg19
I28
sg20
g21
((dp384
I00
I26
sI01
I2
stp385
Rp386
sg25
I2
sg26
F29.0
sbs(g9
S'exists(\xea\xb2\x83/Noun)'
p387
tp388
g0
(g14
g2
Ntp389
Rp390
(dp391
g18
F0.5
sg19
I28
sg20
g21
((dp392
I00
I28
stp393
Rp394
sg25
I2
sg26
F29.0
sbs(g8
S'exists(\xec\x99\x80\xec\x9d\xb4\xed\x94\x84/Noun)'
p395
tp396
g0
(g14
g2
Ntp397
Rp398
(dp399
g18
F0.5
sg19
I28
sg20
g21
((dp400
I00
I28
stp401
Rp402
sg25
I2
sg26
F29.0
sbs(g9
S'exists(\xec\x9b\x94\xec\x9a\x94\xec\x9d\xbc/Noun)'
p403
tp404
g0
(g14
g2
Ntp405
Rp406
(dp407
g18
F0.5
sg19
I28
sg20
g21
((dp408
I00
I26
sI01
I2
stp409
Rp410
sg25
I2
sg26
F29.0
sbs(g9
S'exists(\xec\xb0\x8d\xeb\x8b\xa4/Verb)'
p411
tp412
g0
(g14
g2
Ntp413
Rp414
(dp415
g18
F0.5
sg19
I28
sg20
g21
((dp416
I00
I28
stp417
Rp418
sg25
I2
sg26
F29.0
sbs(g9
S'exists(\xed\x8c\x8c\xec\x9d\xb4/Noun)'
p419
tp420
g0
(g14
g2
Ntp421
Rp422
(dp423
g18
F0.5
sg19
I28
sg20
g21
((dp424
I00
I22
sI01
I6
stp425
Rp426
sg25
I2
sg26
F29.0
sbs(g9
S'exists(\xeb\xb3\xb4\xeb\x82\xb4\xeb\x8b\xa4/Verb)'
p427
tp428
g0
(g14
g2
Ntp429
Rp430
(dp431
g18
F0.5
sg19
I28
sg20
g21
((dp432
I00
I15
sI01
I13
stp433
Rp434
sg25
I2
sg26
F29.0
sbs(g9
S'exists(\xec\xb9\x9c\xea\xb5\xac/Noun)'
p435
tp436
g0
(g14
g2
Ntp437
Rp438
(dp439
g18
F0.5
sg19
I28
sg20
g21
((dp440
I00
I27
sI01
I1
stp441
Rp442
sg25
I2
sg26
F29.0
sbs(g9
S'exists(\xed\x95\xb4\xec\xa3\xbc\xeb\x8b\xa4/Verb)'
p443
tp444
g0
(g14
g2
Ntp445
Rp446
(dp447
g18
F0.5
sg19
I28
sg20
g21
((dp448
I00
I20
sI01
I8
stp449
Rp450
sg25
I2
sg26
F29.0
sbs(g8
S'exists(\xea\xb2\xa8\xec\x9a\xb8/Noun)'
p451
tp452
g0
(g14
g2
Ntp453
Rp454
(dp455
g18
F0.5
sg19
I28
sg20
g21
((dp456
I00
I24
sI01
I4
stp457
Rp458
sg25
I2
sg26
F29.0
sbs(g9
S'exists(\xec\x97\x84\xeb\xa7\x88/Noun)'
p459
tp460
g0
(g14
g2
Ntp461
Rp462
(dp463
g18
F0.5
sg19
I28
sg20
g21
((dp464
I00
I26
sI01
I2
stp465
Rp466
sg25
I2
sg26
F29.0
sbs(g8
S'exists(\xec\x9c\x84/Noun)'
p467
tp468
g0
(g14
g2
Ntp469
Rp470
(dp471
g18
F0.5
sg19
I28
sg20
g21
((dp472
I00
I28
stp473
Rp474
sg25
I2
sg26
F29.0
sbs(g9
S'exists(\xec\x96\xb4\xec\xa0\x9c/Noun)'
p475
tp476
g0
(g14
g2
Ntp477
Rp478
(dp479
g18
F0.5
sg19
I28
sg20
g21
((dp480
I00
I28
stp481
Rp482
sg25
I2
sg26
F29.0
sbs(g8
S'exists(\xeb\xb3\xb4\xeb\x8b\xa4/Verb)'
p483
tp484
g0
(g14
g2
Ntp485
Rp486
(dp487
g18
F0.5
sg19
I28
sg20
g21
((dp488
I00
I24
sI01
I4
stp489
Rp490
sg25
I2
sg26
F29.0
sbs(g9
S'exists(\xeb\x82\xb4\xec\x9d\xbc/Noun)'
p491
tp492
g0
(g14
g2
Ntp493
Rp494
(dp495
g18
F0.5
sg19
I28
sg20
g21
((dp496
I00
I26
sI01
I2
stp497
Rp498
sg25
I2
sg26
F29.0
sbs(g9
S'exists(\xec\x86\x8c\xed\x94\xbc/Noun)'
p499
tp500
g0
(g14
g2
Ntp501
Rp502
(dp503
g18
F0.5
sg19
I28
sg20
g21
((dp504
I00
I22
sI01
I6
stp505
Rp506
sg25
I2
sg26
F29.0
sbs(g8
S'exists(\xec\xb0\xb0\xeb\xa6\xac/Noun)'
p507
tp508
g0
(g14
g2
Ntp509
Rp510
(dp511
g18
F0.5
sg19
I28
sg20
g21
((dp512
I00
I26
sI01
I2
stp513
Rp514
sg25
I2
sg26
F29.0
sbs(g9
S'exists(\xec\x98\x88\xec\xa7\x80/Noun)'
p515
tp516
g0
(g14
g2
Ntp517
Rp518
(dp519
g18
F0.5
sg19
I28
sg20
g21
((dp520
I00
I26
sI01
I2
stp521
Rp522
sg25
I2
sg26
F29.0
sbs(g8
S'exists(\xeb\x8b\x89/Noun)'
p523
tp524
g0
(g14
g2
Ntp525
Rp526
(dp527
g18
F0.5
sg19
I28
sg20
g21
((dp528
I00
I27
sI01
I1
stp529
Rp530
sg25
I2
sg26
F29.0
sbs(g9
S'exists(\xea\xb2\xa8\xec\x9a\xb8/Noun)'
p531
tp532
g0
(g14
g2
Ntp533
Rp534
(dp535
g18
F0.5
sg19
I28
sg20
g21
((dp536
I00
I28
stp537
Rp538
sg25
I2
sg26
F29.0
sbs(g9
S'exists(\xea\xb2\x80\xec\x83\x89/Noun)'
p539
tp540
g0
(g14
g2
Ntp541
Rp542
(dp543
g18
F0.5
sg19
I28
sg20
g21
((dp544
I00
I19
sI01
I9
stp545
Rp546
sg25
I2
sg26
F29.0
sbs(g9
S'exists(\xec\xa0\x84\xec\x86\xa1/Noun)'
p547
tp548
g0
(g14
g2
Ntp549
Rp550
(dp551
g18
F0.5
sg19
I28
sg20
g21
((dp552
I00
I14
sI01
I14
stp553
Rp554
sg25
I2
sg26
F29.0
sbs(g9
S'exists(\xec\x99\x80\xec\x9d\xb4\xed\x94\x84/Noun)'
p555
tp556
g0
(g14
g2
Ntp557
Rp558
(dp559
g18
F0.5
sg19
I28
sg20
g21
((dp560
I00
I25
sI01
I3
stp561
Rp562
sg25
I2
sg26
F29.0
sbs(g9
S'exists(\xec\x9e\x91\xeb\x85\x84/Noun)'
p563
tp564
g0
(g14
g2
Ntp565
Rp566
(dp567
g18
F0.5
sg19
I28
sg20
g21
((dp568
I00
I28
stp569
Rp570
sg25
I2
sg26
F29.0
sbs(g9
S'exists(\xeb\xb0\xa9\xea\xb8\x88/Noun)'
p571
tp572
g0
(g14
g2
Ntp573
Rp574
(dp575
g18
F0.5
sg19
I28
sg20
g21
((dp576
I00
I22
sI01
I6
stp577
Rp578
sg25
I2
sg26
F29.0
sbs(g9
S'exists(\xed\x95\xa0\xeb\xa8\xb8\xeb\x8b\x88/Noun)'
p579
tp580
g0
(g14
g2
Ntp581
Rp582
(dp583
g18
F0.5
sg19
I28
sg20
g21
((dp584
I00
I26
sI01
I2
stp585
Rp586
sg25
I2
sg26
F29.0
sbs(g8
S'exists(\xec\x9d\xb4\xeb\xa9\x94\xec\x9d\xbc/Noun)'
p587
tp588
g0
(g14
g2
Ntp589
Rp590
(dp591
g18
F0.5
sg19
I28
sg20
g21
((dp592
I00
I28
stp593
Rp594
sg25
I2
sg26
F29.0
sbs(g8
S'exists(\xec\xb9\x9c\xea\xb5\xac/Noun)'
p595
tp596
g0
(g14
g2
Ntp597
Rp598
(dp599
g18
F0.5
sg19
I28
sg20
g21
((dp600
I00
I27
sI01
I1
stp601
Rp602
sg25
I2
sg26
F29.0
sbs(g9
S'exists(\xec\xa4\x91/Noun)'
p603
tp604
g0
(g14
g2
Ntp605
Rp606
(dp607
g18
F0.5
sg19
I28
sg20
g21
((dp608
I00
I26
sI01
I2
stp609
Rp610
sg25
I2
sg26
F29.0
sbs(g9
S'exists(\xeb\x82\x98\xec\x98\xa4\xeb\x8b\xa4/Verb)'
p611
tp612
g0
(g14
g2
Ntp613
Rp614
(dp615
g18
F0.5
sg19
I28
sg20
g21
((dp616
I00
I26
sI01
I2
stp617
Rp618
sg25
I2
sg26
F29.0
sbs(g8
S'exists(\xea\xb2\x83/Noun)'
p619
tp620
g0
(g14
g2
Ntp621
Rp622
(dp623
g18
F0.5
sg19
I28
sg20
g21
((dp624
I00
I26
sI01
I2
stp625
Rp626
sg25
I2
sg26
F29.0
sbs(g9
S'exists(\xea\xb0\x9c/Noun)'
p627
tp628
g0
(g14
g2
Ntp629
Rp630
(dp631
g18
F0.5
sg19
I28
sg20
g21
((dp632
I00
I26
sI01
I2
stp633
Rp634
sg25
I2
sg26
F29.0
sbs(g9
S'exists(\xec\x97\xac\xeb\xa6\x84/Noun)'
p635
tp636
g0
(g14
g2
Ntp637
Rp638
(dp639
g18
F0.5
sg19
I28
sg20
g21
((dp640
I00
I28
stp641
Rp642
sg25
I2
sg26
F29.0
sbs(g9
S'exists(\xeb\xb6\x84\xeb\xa5\x98/Noun)'
p643
tp644
g0
(g14
g2
Ntp645
Rp646
(dp647
g18
F0.5
sg19
I28
sg20
g21
((dp648
I00
I26
sI01
I2
stp649
Rp650
sg25
I2
sg26
F29.0
sbs(g9
S'exists(\xeb\xb3\xb4\xec\x9d\xb4\xeb\x8b\xa4/Verb)'
p651
tp652
g0
(g14
g2
Ntp653
Rp654
(dp655
g18
F0.5
sg19
I28
sg20
g21
((dp656
I00
I28
stp657
Rp658
sg25
I2
sg26
F29.0
sbssS'_label_probdist'
p659
g0
(g14
g2
Ntp660
Rp661
(dp662
g18
F0.5
sg19
I56
sg20
g21
((dp663
g8
I28
sg9
I28
stp664
Rp665
sg25
I2
sg26
F57.0
sbsb.